target datalayout = "e-m:e-p270:32:32-p271:32:32-p272:64:64-i64:64-i128:128-f80:128-n8:16:32:64-S128"
target triple = "x86_64-pc-linux-gnu"

%"class.llvm::StringRef" = type { ptr, i64 }
%"class.llvm::StringMapEntryStorage" = type { %"class.llvm::StringMapEntryBase", ptr }
%"class.llvm::StringMapEntryBase" = type { i64 }
%"class.clang::IdentifierInfo" = type { i64, ptr, ptr }
%"class.llvm::StringMapEntry" = type { %"class.llvm::StringMapEntryStorage" }

@.str.441 = private unnamed_addr constant [3 x i8] c"__\00", align 1

; Function Attrs: mustprogress nounwind uwtable
define linkonce_odr hidden noundef i64 @_ZNK4llvm18StringMapEntryBase12getKeyLengthEv(ptr noundef nonnull align 8 dereferenceable(8) %0) #0 comdat align 2 {
  %2 = alloca ptr, align 8
  store ptr %0, ptr %2, align 8
  %3 = load ptr, ptr %2, align 8
  %4 = getelementptr inbounds nuw %"class.llvm::StringMapEntryBase", ptr %3, i32 0, i32 0
  %5 = load i64, ptr %4, align 8
  ret i64 %5
}

; Function Attrs: mustprogress nounwind uwtable
define linkonce_odr hidden noundef ptr @_ZNK4llvm14StringMapEntryIPN5clang14IdentifierInfoEE10getKeyDataEv(ptr noundef nonnull align 8 dereferenceable(16) %0) #0 comdat align 2 {
  %2 = alloca ptr, align 8
  store ptr %0, ptr %2, align 8
  %3 = load ptr, ptr %2, align 8
  %4 = getelementptr inbounds %"class.llvm::StringMapEntry", ptr %3, i64 1
  ret ptr %4
}

; Function Attrs: mustprogress nounwind uwtable
define linkonce_odr hidden noundef i64 @_ZNSt11char_traitsIcE6lengthEPKc(ptr noundef %0) #0 comdat align 2 {
  %2 = alloca ptr, align 8
  store ptr %0, ptr %2, align 8
  %3 = load ptr, ptr %2, align 8
  %4 = call i64 @strlen(ptr noundef %3) #14
  ret i64 %4
}

; Function Attrs: mustprogress nounwind uwtable
define linkonce_odr hidden void @_ZN4llvm9StringRefC2EPKcm(ptr noundef nonnull align 8 dereferenceable(16) %0, ptr noundef %1, i64 noundef %2) unnamed_addr #0 comdat align 2 {
  %4 = alloca ptr, align 8
  %5 = alloca ptr, align 8
  %6 = alloca i64, align 8
  store ptr %0, ptr %4, align 8
  store ptr %1, ptr %5, align 8
  store i64 %2, ptr %6, align 8
  %7 = load ptr, ptr %4, align 8
  %8 = getelementptr inbounds nuw %"class.llvm::StringRef", ptr %7, i32 0, i32 0
  %9 = load ptr, ptr %5, align 8
  store ptr %9, ptr %8, align 8
  %10 = getelementptr inbounds nuw %"class.llvm::StringRef", ptr %7, i32 0, i32 1
  %11 = load i64, ptr %6, align 8
  store i64 %11, ptr %10, align 8
  ret void
}

; Function Attrs: mustprogress nounwind uwtable
define linkonce_odr hidden noundef i32 @_ZNK5clang14IdentifierInfo9getLengthEv(ptr noundef nonnull align 8 dereferenceable(24) %0) #0 comdat align 2 {
  %2 = alloca ptr, align 8
  store ptr %0, ptr %2, align 8
  %3 = load ptr, ptr %2, align 8
  %4 = getelementptr inbounds nuw %"class.clang::IdentifierInfo", ptr %3, i32 0, i32 2
  %5 = load ptr, ptr %4, align 8
  %6 = call noundef i64 @_ZNK4llvm18StringMapEntryBase12getKeyLengthEv(ptr noundef nonnull align 8 dereferenceable(8) %5)
  %7 = trunc i64 %6 to i32
  ret i32 %7
}

; Function Attrs: mustprogress nounwind uwtable
define linkonce_odr hidden noundef ptr @_ZNK5clang14IdentifierInfo12getNameStartEv(ptr noundef nonnull align 8 dereferenceable(24) %0) #0 comdat align 2 {
  %2 = alloca ptr, align 8
  store ptr %0, ptr %2, align 8
  %3 = load ptr, ptr %2, align 8
  %4 = getelementptr inbounds nuw %"class.clang::IdentifierInfo", ptr %3, i32 0, i32 2
  %5 = load ptr, ptr %4, align 8
  %6 = call noundef ptr @_ZNK4llvm14StringMapEntryIPN5clang14IdentifierInfoEE10getKeyDataEv(ptr noundef nonnull align 8 dereferenceable(16) %5)
  ret ptr %6
}

; Function Attrs: mustprogress nounwind uwtable
define linkonce_odr hidden noundef zeroext i1 @_ZNK4llvm9StringRef8containsES0_(ptr noundef nonnull align 8 dereferenceable(16) %0, ptr %1, i64 %2) #0 comdat align 2 {
  %4 = alloca %"class.llvm::StringRef", align 8
  %5 = alloca ptr, align 8
  %6 = alloca %"class.llvm::StringRef", align 8
  %7 = getelementptr inbounds nuw { ptr, i64 }, ptr %4, i32 0, i32 0
  store ptr %1, ptr %7, align 8
  %8 = getelementptr inbounds nuw { ptr, i64 }, ptr %4, i32 0, i32 1
  store i64 %2, ptr %8, align 8
  store ptr %0, ptr %5, align 8
  %9 = load ptr, ptr %5, align 8
  call void @llvm.memcpy.p0.p0.i64(ptr align 8 %6, ptr align 8 %4, i64 16, i1 false)
  %10 = getelementptr inbounds nuw { ptr, i64 }, ptr %6, i32 0, i32 0
  %11 = load ptr, ptr %10, align 8
  %12 = getelementptr inbounds nuw { ptr, i64 }, ptr %6, i32 0, i32 1
  %13 = load i64, ptr %12, align 8
  %14 = call noundef i64 @_ZNK4llvm9StringRef4findES0_m(ptr noundef nonnull align 8 dereferenceable(16) %9, ptr %11, i64 %13, i64 noundef 0)
  %15 = icmp ne i64 %14, -1
  ret i1 %15
}

; Function Attrs: mustprogress nounwind uwtable
define linkonce_odr hidden void @_ZN4llvm9StringRefC2EPKc(ptr noundef nonnull align 8 dereferenceable(16) %0, ptr noundef %1) unnamed_addr #0 comdat align 2 {
  %3 = alloca ptr, align 8
  %4 = alloca ptr, align 8
  store ptr %0, ptr %3, align 8
  store ptr %1, ptr %4, align 8
  %5 = load ptr, ptr %3, align 8
  %6 = getelementptr inbounds nuw %"class.llvm::StringRef", ptr %5, i32 0, i32 0
  %7 = load ptr, ptr %4, align 8
  store ptr %7, ptr %6, align 8
  %8 = getelementptr inbounds nuw %"class.llvm::StringRef", ptr %5, i32 0, i32 1
  %9 = load ptr, ptr %4, align 8
  %10 = icmp ne ptr %9, null
  br i1 %10, label %11, label %14

11:                                               ; preds = %2
  %12 = load ptr, ptr %4, align 8
  %13 = call noundef i64 @_ZNSt11char_traitsIcE6lengthEPKc(ptr noundef %12)
  br label %15

14:                                               ; preds = %2
  br label %15

15:                                               ; preds = %14, %11
  %16 = phi i64 [ %13, %11 ], [ 0, %14 ]
  store i64 %16, ptr %8, align 8
  ret void
}

; Function Attrs: mustprogress nounwind uwtable
define linkonce_odr hidden noundef signext i8 @_ZNK4llvm9StringRefixEm(ptr noundef nonnull align 8 dereferenceable(16) %0, i64 noundef %1) #0 comdat align 2 {
  %3 = alloca ptr, align 8
  %4 = alloca i64, align 8
  store ptr %0, ptr %3, align 8
  store i64 %1, ptr %4, align 8
  %5 = load ptr, ptr %3, align 8
  %6 = getelementptr inbounds nuw %"class.llvm::StringRef", ptr %5, i32 0, i32 0
  %7 = load ptr, ptr %6, align 8
  %8 = load i64, ptr %4, align 8
  %9 = getelementptr inbounds i8, ptr %7, i64 %8
  %10 = load i8, ptr %9, align 1
  ret i8 %10
}

; Function Attrs: mustprogress nounwind uwtable
define linkonce_odr hidden noundef i64 @_ZNK4llvm9StringRef4sizeEv(ptr noundef nonnull align 8 dereferenceable(16) %0) #0 comdat align 2 {
  %2 = alloca ptr, align 8
  store ptr %0, ptr %2, align 8
  %3 = load ptr, ptr %2, align 8
  %4 = getelementptr inbounds nuw %"class.llvm::StringRef", ptr %3, i32 0, i32 1
  %5 = load i64, ptr %4, align 8
  ret i64 %5
}

; Function Attrs: mustprogress nounwind uwtable
define linkonce_odr hidden { ptr, i64 } @_ZNK5clang14IdentifierInfo7getNameEv(ptr noundef nonnull align 8 dereferenceable(24) %0) #0 comdat align 2 {
  %2 = alloca %"class.llvm::StringRef", align 8
  %3 = alloca ptr, align 8
  store ptr %0, ptr %3, align 8
  %4 = load ptr, ptr %3, align 8
  %5 = call noundef ptr @_ZNK5clang14IdentifierInfo12getNameStartEv(ptr noundef nonnull align 8 dereferenceable(24) %4)
  %6 = call noundef i32 @_ZNK5clang14IdentifierInfo9getLengthEv(ptr noundef nonnull align 8 dereferenceable(24) %4)
  %7 = zext i32 %6 to i64
  call void @_ZN4llvm9StringRefC2EPKcm(ptr noundef nonnull align 8 dereferenceable(16) %2, ptr noundef %5, i64 noundef %7)
  %8 = load { ptr, i64 }, ptr %2, align 8
  ret { ptr, i64 } %8
}

; Function Attrs: mustprogress nounwind uwtable
define dso_local noundef i32 @_ZNK5clang14IdentifierInfo10isReservedERKNS_11LangOptionsE(ptr noundef nonnull align 8 dereferenceable(24) %0, ptr noundef nonnull align 8 dereferenceable(841) %1) #0 align 2 {
  %3 = alloca i32, align 4
  %4 = alloca ptr, align 8
  %5 = alloca ptr, align 8
  %6 = alloca %"class.llvm::StringRef", align 8
  %7 = alloca %"class.llvm::StringRef", align 8
  store ptr %0, ptr %4, align 8
  store ptr %1, ptr %5, align 8
  %8 = load ptr, ptr %4, align 8
  %9 = call { ptr, i64 } @_ZNK5clang14IdentifierInfo7getNameEv(ptr noundef nonnull align 8 dereferenceable(24) %8)
  %10 = getelementptr inbounds nuw { ptr, i64 }, ptr %6, i32 0, i32 0
  %11 = extractvalue { ptr, i64 } %9, 0
  store ptr %11, ptr %10, align 8
  %12 = getelementptr inbounds nuw { ptr, i64 }, ptr %6, i32 0, i32 1
  %13 = extractvalue { ptr, i64 } %9, 1
  store i64 %13, ptr %12, align 8
  %14 = call noundef i64 @_ZNK4llvm9StringRef4sizeEv(ptr noundef nonnull align 8 dereferenceable(16) %6)
  %15 = icmp ule i64 %14, 1
  br i1 %15, label %16, label %17

16:                                               ; preds = %2
  store i32 0, ptr %3, align 4
  br label %51

17:                                               ; preds = %2
  %18 = call noundef signext i8 @_ZNK4llvm9StringRefixEm(ptr noundef nonnull align 8 dereferenceable(16) %6, i64 noundef 0)
  %19 = sext i8 %18 to i32
  %20 = icmp eq i32 %19, 95
  br i1 %20, label %21, label %36

21:                                               ; preds = %17
  %22 = call noundef signext i8 @_ZNK4llvm9StringRefixEm(ptr noundef nonnull align 8 dereferenceable(16) %6, i64 noundef 1)
  %23 = sext i8 %22 to i32
  %24 = icmp eq i32 %23, 95
  br i1 %24, label %25, label %26

25:                                               ; preds = %21
  store i32 3, ptr %3, align 4
  br label %51

26:                                               ; preds = %21
  %27 = call noundef signext i8 @_ZNK4llvm9StringRefixEm(ptr noundef nonnull align 8 dereferenceable(16) %6, i64 noundef 1)
  %28 = sext i8 %27 to i32
  %29 = icmp sle i32 65, %28
  br i1 %29, label %30, label %35

30:                                               ; preds = %26
  %31 = call noundef signext i8 @_ZNK4llvm9StringRefixEm(ptr noundef nonnull align 8 dereferenceable(16) %6, i64 noundef 1)
  %32 = sext i8 %31 to i32
  %33 = icmp sle i32 %32, 90
  br i1 %33, label %34, label %35

34:                                               ; preds = %30
  store i32 4, ptr %3, align 4
  br label %51

35:                                               ; preds = %30, %26
  store i32 1, ptr %3, align 4
  br label %51

36:                                               ; preds = %17
  %37 = load ptr, ptr %5, align 8
  %38 = load i64, ptr %37, align 8
  %39 = lshr i64 %38, 11
  %40 = and i64 %39, 1
  %41 = trunc i64 %40 to i32
  %42 = icmp ne i32 %41, 0
  br i1 %42, label %43, label %50

43:                                               ; preds = %36
  call void @_ZN4llvm9StringRefC2EPKc(ptr noundef nonnull align 8 dereferenceable(16) %7, ptr noundef @.str.441)
  %44 = getelementptr inbounds nuw { ptr, i64 }, ptr %7, i32 0, i32 0
  %45 = load ptr, ptr %44, align 8
  %46 = getelementptr inbounds nuw { ptr, i64 }, ptr %7, i32 0, i32 1
  %47 = load i64, ptr %46, align 8
  %48 = call noundef zeroext i1 @_ZNK4llvm9StringRef8containsES0_(ptr noundef nonnull align 8 dereferenceable(16) %6, ptr %45, i64 %47)
  br i1 %48, label %49, label %50

49:                                               ; preds = %43
  store i32 5, ptr %3, align 4
  br label %51

50:                                               ; preds = %43, %36
  store i32 0, ptr %3, align 4
  br label %51

51:                                               ; preds = %50, %49, %35, %34, %25, %16
  %52 = load i32, ptr %3, align 4
  ret i32 %52
}