; Function Attrs: mustprogress nounwind uwtable
define dso_local noundef range(i32 0, 6) i32 @_ZNK5clang14IdentifierInfo10isReservedERKNS_11LangOptionsE(ptr nocapture noundef nonnull readonly align 8 dereferenceable(24) %0, ptr nocapture noundef nonnull readonly align 8 dereferenceable(841) %1) local_unnamed_addr #3 align 2 {
  %3 = alloca %"class.llvm::StringRef", align 8
  %4 = getelementptr inbounds nuw i8, ptr %0, i64 16
  %5 = load ptr, ptr %4, align 8
  %6 = getelementptr inbounds i8, ptr %5, i64 16
  %7 = load i64, ptr %5, align 8
  %8 = and i64 %7, 4294967295
  store ptr %6, ptr %3, align 8
  %9 = getelementptr inbounds nuw i8, ptr %3, i64 8
  store i64 %8, ptr %9, align 8
  %10 = icmp ult i64 %8, 2
  br i1 %10, label %26, label %11

11:                                               ; preds = %2
  %12 = load i8, ptr %6, align 1
  %13 = icmp eq i8 %12, 95
  br i1 %13, label %14, label %20

14:                                               ; preds = %11
  %15 = getelementptr inbounds i8, ptr %5, i64 17
  %16 = load i8, ptr %15, align 1
  %17 = icmp eq i8 %16, 95
  br i1 %17, label %26, label %18

18:                                               ; preds = %14
  %19 = add i8 %16, -65
  %or.cond = icmp ult i8 %19, 26
  %spec.select = select i1 %or.cond, i32 4, i32 1
  br label %26

20:                                               ; preds = %11
  %21 = load i64, ptr %1, align 8
  %22 = and i64 %21, 2048
  %.not = icmp eq i64 %22, 0
  br i1 %.not, label %25, label %23

23:                                               ; preds = %20
  %24 = call noundef i64 @_ZNK4llvm9StringRef4findES0_m(ptr noundef nonnull align 8 dereferenceable(16) %3, ptr nonnull @.str.441, i64 2, i64 noundef 0) #26
  %.not2 = icmp eq i64 %24, -1
  br i1 %.not2, label %25, label %26

25:                                               ; preds = %23, %20
  br label %26

26:                                               ; preds = %18, %23, %14, %2, %25
  %.0 = phi i32 [ 0, %25 ], [ 0, %2 ], [ 3, %14 ], [ 5, %23 ], [ %spec.select, %18 ]
  ret i32 %.0
}